
Merging program properties


As-needed library included to satisfy reference by file (symbol)

libc.so.6                     src/main.o (malloc@@GLIBC_2.2.5)

Discarded input sections

 .note.GNU-stack
                0x0000000000000000        0x0 /usr/lib/gcc/x86_64-linux-gnu/11/../../../x86_64-linux-gnu/Scrt1.o
 .note.gnu.property
                0x0000000000000000       0x20 /usr/lib/gcc/x86_64-linux-gnu/11/../../../x86_64-linux-gnu/crti.o
 .note.GNU-stack
                0x0000000000000000        0x0 /usr/lib/gcc/x86_64-linux-gnu/11/../../../x86_64-linux-gnu/crti.o
 .note.GNU-stack
                0x0000000000000000        0x0 /usr/lib/gcc/x86_64-linux-gnu/11/crtbeginS.o
 .note.gnu.property
                0x0000000000000000       0x20 /usr/lib/gcc/x86_64-linux-gnu/11/crtbeginS.o
 .note.GNU-stack
                0x0000000000000000        0x0 src/main.o
 .note.gnu.property
                0x0000000000000000       0x20 src/main.o
 .note.GNU-stack
                0x0000000000000000        0x0 src/scanner.o
 .note.gnu.property
                0x0000000000000000       0x20 src/scanner.o
 .note.GNU-stack
                0x0000000000000000        0x0 src/token.o
 .note.gnu.property
                0x0000000000000000       0x20 src/token.o
 .note.GNU-stack
                0x0000000000000000        0x0 src/lexer.o
 .note.gnu.property
                0x0000000000000000       0x20 src/lexer.o
 .note.GNU-stack
                0x0000000000000000        0x0 src/parser.o
 .note.gnu.property
                0x0000000000000000       0x20 src/parser.o
 .note.GNU-stack
                0x0000000000000000        0x0 /usr/lib/gcc/x86_64-linux-gnu/11/crtendS.o
 .note.gnu.property
                0x0000000000000000       0x20 /usr/lib/gcc/x86_64-linux-gnu/11/crtendS.o
 .note.gnu.property
                0x0000000000000000       0x20 /usr/lib/gcc/x86_64-linux-gnu/11/../../../x86_64-linux-gnu/crtn.o
 .note.GNU-stack
                0x0000000000000000        0x0 /usr/lib/gcc/x86_64-linux-gnu/11/../../../x86_64-linux-gnu/crtn.o

Memory Configuration

Name             Origin             Length             Attributes
*default*        0x0000000000000000 0xffffffffffffffff

Linker script and memory map

LOAD /usr/lib/gcc/x86_64-linux-gnu/11/../../../x86_64-linux-gnu/Scrt1.o
LOAD /usr/lib/gcc/x86_64-linux-gnu/11/../../../x86_64-linux-gnu/crti.o
LOAD /usr/lib/gcc/x86_64-linux-gnu/11/crtbeginS.o
LOAD src/main.o
LOAD src/scanner.o
LOAD src/token.o
LOAD src/lexer.o
LOAD src/parser.o
LOAD /usr/lib/gcc/x86_64-linux-gnu/11/libgcc.a
LOAD /usr/lib/gcc/x86_64-linux-gnu/11/libgcc_s.so
START GROUP
LOAD /usr/lib/gcc/x86_64-linux-gnu/11/../../../x86_64-linux-gnu/libgcc_s.so.1
LOAD /usr/lib/gcc/x86_64-linux-gnu/11/libgcc.a
END GROUP
LOAD /usr/lib/gcc/x86_64-linux-gnu/11/../../../x86_64-linux-gnu/libc.so
START GROUP
LOAD /lib/x86_64-linux-gnu/libc.so.6
LOAD /usr/lib/x86_64-linux-gnu/libc_nonshared.a
LOAD /lib64/ld-linux-x86-64.so.2
END GROUP
LOAD /usr/lib/gcc/x86_64-linux-gnu/11/libgcc.a
LOAD /usr/lib/gcc/x86_64-linux-gnu/11/libgcc_s.so
START GROUP
LOAD /usr/lib/gcc/x86_64-linux-gnu/11/../../../x86_64-linux-gnu/libgcc_s.so.1
LOAD /usr/lib/gcc/x86_64-linux-gnu/11/libgcc.a
END GROUP
LOAD /usr/lib/gcc/x86_64-linux-gnu/11/crtendS.o
LOAD /usr/lib/gcc/x86_64-linux-gnu/11/../../../x86_64-linux-gnu/crtn.o
                [!provide]                        PROVIDE (__executable_start = SEGMENT_START ("text-segment", 0x0))
                0x0000000000000318                . = (SEGMENT_START ("text-segment", 0x0) + SIZEOF_HEADERS)

.interp         0x0000000000000318       0x1c
 *(.interp)
 .interp        0x0000000000000318       0x1c /usr/lib/gcc/x86_64-linux-gnu/11/../../../x86_64-linux-gnu/Scrt1.o

.note.gnu.property
                0x0000000000000338       0x30
 .note.gnu.property
                0x0000000000000338       0x30 /usr/lib/gcc/x86_64-linux-gnu/11/../../../x86_64-linux-gnu/Scrt1.o

.note.gnu.build-id
                0x0000000000000368       0x24
 *(.note.gnu.build-id)
 .note.gnu.build-id
                0x0000000000000368       0x24 /usr/lib/gcc/x86_64-linux-gnu/11/../../../x86_64-linux-gnu/Scrt1.o

.note.ABI-tag   0x000000000000038c       0x20
 .note.ABI-tag  0x000000000000038c       0x20 /usr/lib/gcc/x86_64-linux-gnu/11/../../../x86_64-linux-gnu/Scrt1.o

.hash
 *(.hash)

.gnu.hash       0x00000000000003b0       0x24
 *(.gnu.hash)
 .gnu.hash      0x00000000000003b0       0x24 /usr/lib/gcc/x86_64-linux-gnu/11/../../../x86_64-linux-gnu/Scrt1.o

.dynsym         0x00000000000003d8      0x300
 *(.dynsym)
 .dynsym        0x00000000000003d8      0x300 /usr/lib/gcc/x86_64-linux-gnu/11/../../../x86_64-linux-gnu/Scrt1.o

.dynstr         0x00000000000006d8      0x161
 *(.dynstr)
 .dynstr        0x00000000000006d8      0x161 /usr/lib/gcc/x86_64-linux-gnu/11/../../../x86_64-linux-gnu/Scrt1.o

.gnu.version    0x000000000000083a       0x40
 *(.gnu.version)
 .gnu.version   0x000000000000083a       0x40 /usr/lib/gcc/x86_64-linux-gnu/11/../../../x86_64-linux-gnu/Scrt1.o

.gnu.version_d  0x0000000000000880        0x0
 *(.gnu.version_d)
 .gnu.version_d
                0x0000000000000880        0x0 /usr/lib/gcc/x86_64-linux-gnu/11/../../../x86_64-linux-gnu/Scrt1.o

.gnu.version_r  0x0000000000000880       0x60
 *(.gnu.version_r)
 .gnu.version_r
                0x0000000000000880       0x60 /usr/lib/gcc/x86_64-linux-gnu/11/../../../x86_64-linux-gnu/Scrt1.o

.rela.dyn       0x00000000000008e0      0x360
 *(.rela.init)
 *(.rela.text .rela.text.* .rela.gnu.linkonce.t.*)
 *(.rela.fini)
 *(.rela.rodata .rela.rodata.* .rela.gnu.linkonce.r.*)
 *(.rela.data .rela.data.* .rela.gnu.linkonce.d.*)
 .rela.data.rel.ro
                0x00000000000008e0        0x0 /usr/lib/gcc/x86_64-linux-gnu/11/../../../x86_64-linux-gnu/Scrt1.o
 .rela.data.rel.local
                0x00000000000008e0      0x2b8 /usr/lib/gcc/x86_64-linux-gnu/11/../../../x86_64-linux-gnu/Scrt1.o
 *(.rela.tdata .rela.tdata.* .rela.gnu.linkonce.td.*)
 *(.rela.tbss .rela.tbss.* .rela.gnu.linkonce.tb.*)
 *(.rela.ctors)
 *(.rela.dtors)
 *(.rela.got)
 .rela.got      0x0000000000000b98       0x78 /usr/lib/gcc/x86_64-linux-gnu/11/../../../x86_64-linux-gnu/Scrt1.o
 *(.rela.bss .rela.bss.* .rela.gnu.linkonce.b.*)
 .rela.bss      0x0000000000000c10        0x0 /usr/lib/gcc/x86_64-linux-gnu/11/../../../x86_64-linux-gnu/Scrt1.o
 *(.rela.ldata .rela.ldata.* .rela.gnu.linkonce.l.*)
 *(.rela.lbss .rela.lbss.* .rela.gnu.linkonce.lb.*)
 *(.rela.lrodata .rela.lrodata.* .rela.gnu.linkonce.lr.*)
 *(.rela.ifunc)
 .rela.ifunc    0x0000000000000c10        0x0 /usr/lib/gcc/x86_64-linux-gnu/11/../../../x86_64-linux-gnu/Scrt1.o
 .rela.fini_array
                0x0000000000000c10       0x18 /usr/lib/gcc/x86_64-linux-gnu/11/../../../x86_64-linux-gnu/Scrt1.o
 .rela.init_array
                0x0000000000000c28       0x18 /usr/lib/gcc/x86_64-linux-gnu/11/../../../x86_64-linux-gnu/Scrt1.o

.rela.plt       0x0000000000000c40      0x270
 *(.rela.plt)
 .rela.plt      0x0000000000000c40      0x270 /usr/lib/gcc/x86_64-linux-gnu/11/../../../x86_64-linux-gnu/Scrt1.o
 *(.rela.iplt)

.relr.dyn
 *(.relr.dyn)
                0x0000000000001000                . = ALIGN (CONSTANT (MAXPAGESIZE))

.init           0x0000000000001000       0x1b
 *(SORT_NONE(.init))
 .init          0x0000000000001000       0x16 /usr/lib/gcc/x86_64-linux-gnu/11/../../../x86_64-linux-gnu/crti.o
                0x0000000000001000                _init
 .init          0x0000000000001016        0x5 /usr/lib/gcc/x86_64-linux-gnu/11/../../../x86_64-linux-gnu/crtn.o

.plt            0x0000000000001020      0x1b0
 *(.plt)
 .plt           0x0000000000001020      0x1b0 /usr/lib/gcc/x86_64-linux-gnu/11/../../../x86_64-linux-gnu/Scrt1.o
 *(.iplt)

.plt.got        0x00000000000011d0       0x10
 *(.plt.got)
 .plt.got       0x00000000000011d0       0x10 /usr/lib/gcc/x86_64-linux-gnu/11/../../../x86_64-linux-gnu/Scrt1.o
                0x00000000000011d0                __cxa_finalize@@GLIBC_2.2.5

.plt.sec        0x00000000000011e0      0x1a0
 *(.plt.sec)
 .plt.sec       0x00000000000011e0      0x1a0 /usr/lib/gcc/x86_64-linux-gnu/11/../../../x86_64-linux-gnu/Scrt1.o
                0x00000000000011e0                free@@GLIBC_2.2.5
                0x00000000000011f0                putchar@@GLIBC_2.2.5
                0x0000000000001200                strcpy@@GLIBC_2.2.5
                0x0000000000001210                puts@@GLIBC_2.2.5
                0x0000000000001220                fread@@GLIBC_2.2.5
                0x0000000000001230                fclose@@GLIBC_2.2.5
                0x0000000000001240                opendir@@GLIBC_2.2.5
                0x0000000000001250                strlen@@GLIBC_2.2.5
                0x0000000000001260                __stack_chk_fail@@GLIBC_2.4
                0x0000000000001270                printf@@GLIBC_2.2.5
                0x0000000000001280                strrchr@@GLIBC_2.2.5
                0x0000000000001290                __assert_fail@@GLIBC_2.2.5
                0x00000000000012a0                fputs@@GLIBC_2.2.5
                0x00000000000012b0                strcmp@@GLIBC_2.2.5
                0x00000000000012c0                fprintf@@GLIBC_2.2.5
                0x00000000000012d0                ftell@@GLIBC_2.2.5
                0x00000000000012e0                stat@@GLIBC_2.33
                0x00000000000012f0                readdir@@GLIBC_2.2.5
                0x0000000000001300                malloc@@GLIBC_2.2.5
                0x0000000000001310                fseek@@GLIBC_2.2.5
                0x0000000000001320                fopen@@GLIBC_2.2.5
                0x0000000000001330                strcat@@GLIBC_2.2.5
                0x0000000000001340                exit@@GLIBC_2.2.5
                0x0000000000001350                fwrite@@GLIBC_2.2.5
                0x0000000000001360                strstr@@GLIBC_2.2.5
                0x0000000000001370                __ctype_b_loc@@GLIBC_2.3

.text           0x0000000000001380     0x3314
 *(.text.unlikely .text.*_unlikely .text.unlikely.*)
 *(.text.exit .text.exit.*)
 *(.text.startup .text.startup.*)
 *(.text.hot .text.hot.*)
 *(SORT_BY_NAME(.text.sorted.*))
 *(.text .stub .text.* .gnu.linkonce.t.*)
 .text          0x0000000000001380       0x26 /usr/lib/gcc/x86_64-linux-gnu/11/../../../x86_64-linux-gnu/Scrt1.o
                0x0000000000001380                _start
 .text          0x00000000000013a6        0x0 /usr/lib/gcc/x86_64-linux-gnu/11/../../../x86_64-linux-gnu/crti.o
 *fill*         0x00000000000013a6        0xa 
 .text          0x00000000000013b0       0xb9 /usr/lib/gcc/x86_64-linux-gnu/11/crtbeginS.o
 .text          0x0000000000001469      0x595 src/main.o
                0x0000000000001469                main
                0x00000000000016ab                generate_output_filename
                0x00000000000018a5                is_directory
                0x0000000000001924                generate_input_filename
 .text          0x00000000000019fe      0x304 src/scanner.o
                0x00000000000019fe                scanner_create
                0x0000000000001b5f                scanner_get_next
                0x0000000000001b84                scanner_at_end
                0x0000000000001bcf                scanner_print
                0x0000000000001c2f                scanner_destroy
                0x0000000000001c65                scanner_position
                0x0000000000001c88                scanner_peek_next
                0x0000000000001ca1                scanner_peek2_next
                0x0000000000001cbb                scanner_reset
                0x0000000000001cd9                scanner_set_position
 .text          0x0000000000001d02      0x1cd src/token.o
                0x0000000000001d02                token_create
                0x0000000000001d78                token_destroy
                0x0000000000001dae                token_map_type_to_text
                0x0000000000001e24                token_map_text_to_type
                0x0000000000001e86                token_print
 .text          0x0000000000001ecf      0x77e src/lexer.o
                0x0000000000001ecf                lexer_create
                0x0000000000001efe                lexer_destroy
                0x0000000000001f1d                lexer_ignore_whitespace
                0x0000000000001f8b                lexer_ignore_comment
                0x00000000000020d1                is_symbol
                0x0000000000002121                is_keyword
                0x000000000000218b                lexer_read
                0x0000000000002583                lexer_peek
                0x00000000000025cf                lexer_peek2
                0x000000000000262b                lexer_print
 .text          0x000000000000264d     0x2047 src/parser.o
                0x000000000000264d                parser_create
                0x000000000000268b                parser_destroy
                0x00000000000026b2                parser_print
                0x00000000000026d4                parser_isOp
                0x000000000000281a                parser_expressionList
                0x0000000000002930                parser_subroutineCall
                0x0000000000002a20                parser_integerConstant
                0x0000000000002a6c                parser_stringConstant
                0x0000000000002ab8                parser_term
                0x0000000000002e1a                parser_expression
                0x0000000000002edb                parser_type
                0x0000000000003006                parser_classVarDec
                0x000000000000321b                parser_isType
                0x00000000000032aa                parser_returnStatement
                0x0000000000003379                parser_letStatement
                0x00000000000034a2                parser_whileStatement
                0x0000000000003583                parser_doStatement
                0x0000000000003616                parser_ifStatement
                0x0000000000003780                parser_statements
                0x00000000000038e7                parser_parameterList
                0x0000000000003a44                parser_varDec
                0x0000000000003bc5                parser_isStatement
                0x0000000000003c99                parser_subroutineBody
                0x0000000000003de4                parser_subroutineDec
                0x0000000000003ff7                parser_identifier
                0x00000000000040c2                parser_keyword
                0x00000000000041aa                parser_symbol
                0x00000000000043e9                parser_class
                0x0000000000004601                parser_execute
 .text          0x0000000000004694        0x0 /usr/lib/gcc/x86_64-linux-gnu/11/crtendS.o
 .text          0x0000000000004694        0x0 /usr/lib/gcc/x86_64-linux-gnu/11/../../../x86_64-linux-gnu/crtn.o
 *(.gnu.warning)

.fini           0x0000000000004694        0xd
 *(SORT_NONE(.fini))
 .fini          0x0000000000004694        0x8 /usr/lib/gcc/x86_64-linux-gnu/11/../../../x86_64-linux-gnu/crti.o
                0x0000000000004694                _fini
 .fini          0x000000000000469c        0x5 /usr/lib/gcc/x86_64-linux-gnu/11/../../../x86_64-linux-gnu/crtn.o
                [!provide]                        PROVIDE (__etext = .)
                [!provide]                        PROVIDE (_etext = .)
                [!provide]                        PROVIDE (etext = .)
                0x0000000000005000                . = ALIGN (CONSTANT (MAXPAGESIZE))
                0x0000000000005000                . = SEGMENT_START ("rodata-segment", (ALIGN (CONSTANT (MAXPAGESIZE)) + (. & (CONSTANT (MAXPAGESIZE) - 0x1))))

.rodata         0x0000000000005000      0x5f5
 *(.rodata .rodata.* .gnu.linkonce.r.*)
 .rodata.cst4   0x0000000000005000        0x4 /usr/lib/gcc/x86_64-linux-gnu/11/../../../x86_64-linux-gnu/Scrt1.o
                0x0000000000005000                _IO_stdin_used
 *fill*         0x0000000000005004        0x4 
 .rodata        0x0000000000005008       0x3b src/main.o
 *fill*         0x0000000000005043        0x5 
 .rodata        0x0000000000005048       0x2e src/scanner.o
 *fill*         0x0000000000005076        0x2 
 .rodata        0x0000000000005078       0x63 src/token.o
 *fill*         0x00000000000050db        0x1 
 .rodata        0x00000000000050dc       0x86 src/lexer.o
                0x0000000000005156                keyword_cnt
 *fill*         0x0000000000005162        0xe 
 .rodata        0x0000000000005170      0x485 src/parser.o

.rodata1
 *(.rodata1)

.eh_frame_hdr   0x00000000000055f8      0x1fc
 *(.eh_frame_hdr)
 .eh_frame_hdr  0x00000000000055f8      0x1fc /usr/lib/gcc/x86_64-linux-gnu/11/../../../x86_64-linux-gnu/Scrt1.o
                0x00000000000055f8                __GNU_EH_FRAME_HDR
 *(.eh_frame_entry .eh_frame_entry.*)

.eh_frame       0x00000000000057f8      0x7d4
 *(.eh_frame)
 .eh_frame      0x00000000000057f8       0x30 /usr/lib/gcc/x86_64-linux-gnu/11/../../../x86_64-linux-gnu/Scrt1.o
                                         0x2c (size before relaxing)
 *fill*         0x0000000000005828        0x0 
 .eh_frame      0x0000000000005828       0x28 /usr/lib/gcc/x86_64-linux-gnu/11/../../../x86_64-linux-gnu/Scrt1.o
                                         0x40 (size before relaxing)
 .eh_frame      0x0000000000005850       0x18 /usr/lib/gcc/x86_64-linux-gnu/11/../../../x86_64-linux-gnu/Scrt1.o
                                         0x30 (size before relaxing)
 .eh_frame      0x0000000000005868       0x18 /usr/lib/gcc/x86_64-linux-gnu/11/../../../x86_64-linux-gnu/Scrt1.o
                                         0x30 (size before relaxing)
 .eh_frame      0x0000000000005880       0x88 src/main.o
                                         0xa0 (size before relaxing)
 .eh_frame      0x0000000000005908      0x140 src/scanner.o
                                        0x158 (size before relaxing)
 .eh_frame      0x0000000000005a48       0xa0 src/token.o
                                         0xb8 (size before relaxing)
 .eh_frame      0x0000000000005ae8      0x140 src/lexer.o
                                        0x158 (size before relaxing)
 .eh_frame      0x0000000000005c28      0x3a0 src/parser.o
                                        0x3b8 (size before relaxing)
 .eh_frame      0x0000000000005fc8        0x4 /usr/lib/gcc/x86_64-linux-gnu/11/crtendS.o
 *(.eh_frame.*)

.gcc_except_table
 *(.gcc_except_table .gcc_except_table.*)

.gnu_extab
 *(.gnu_extab*)

.exception_ranges
 *(.exception_ranges*)
                0x0000000000007cf0                . = DATA_SEGMENT_ALIGN (CONSTANT (MAXPAGESIZE), CONSTANT (COMMONPAGESIZE))

.eh_frame
 *(.eh_frame)
 *(.eh_frame.*)

.gnu_extab
 *(.gnu_extab)

.gcc_except_table
 *(.gcc_except_table .gcc_except_table.*)

.exception_ranges
 *(.exception_ranges*)

.tdata          0x0000000000007cf0        0x0
                [!provide]                        PROVIDE (__tdata_start = .)
 *(.tdata .tdata.* .gnu.linkonce.td.*)

.tbss
 *(.tbss .tbss.* .gnu.linkonce.tb.*)
 *(.tcommon)

.preinit_array  0x0000000000007cf0        0x0
                [!provide]                        PROVIDE (__preinit_array_start = .)
 *(.preinit_array)
                [!provide]                        PROVIDE (__preinit_array_end = .)

.init_array     0x0000000000007cf0        0x8
                [!provide]                        PROVIDE (__init_array_start = .)
 *(SORT_BY_INIT_PRIORITY(.init_array.*) SORT_BY_INIT_PRIORITY(.ctors.*))
 *(.init_array EXCLUDE_FILE(*crtend?.o *crtend.o *crtbegin?.o *crtbegin.o) .ctors)
 .init_array    0x0000000000007cf0        0x8 /usr/lib/gcc/x86_64-linux-gnu/11/crtbeginS.o
                [!provide]                        PROVIDE (__init_array_end = .)

.fini_array     0x0000000000007cf8        0x8
                [!provide]                        PROVIDE (__fini_array_start = .)
 *(SORT_BY_INIT_PRIORITY(.fini_array.*) SORT_BY_INIT_PRIORITY(.dtors.*))
 *(.fini_array EXCLUDE_FILE(*crtend?.o *crtend.o *crtbegin?.o *crtbegin.o) .dtors)
 .fini_array    0x0000000000007cf8        0x8 /usr/lib/gcc/x86_64-linux-gnu/11/crtbeginS.o
                [!provide]                        PROVIDE (__fini_array_end = .)

.ctors
 *crtbegin.o(.ctors)
 *crtbegin?.o(.ctors)
 *(EXCLUDE_FILE(*crtend?.o *crtend.o) .ctors)
 *(SORT_BY_NAME(.ctors.*))
 *(.ctors)

.dtors
 *crtbegin.o(.dtors)
 *crtbegin?.o(.dtors)
 *(EXCLUDE_FILE(*crtend?.o *crtend.o) .dtors)
 *(SORT_BY_NAME(.dtors.*))
 *(.dtors)

.jcr
 *(.jcr)

.data.rel.ro    0x0000000000007d00        0x0
 *(.data.rel.ro.local* .gnu.linkonce.d.rel.ro.local.*)
 *(.data.rel.ro .data.rel.ro.* .gnu.linkonce.d.rel.ro.*)
 .data.rel.ro   0x0000000000007d00        0x0 /usr/lib/gcc/x86_64-linux-gnu/11/../../../x86_64-linux-gnu/Scrt1.o

.dynamic        0x0000000000007d00      0x1f0
 *(.dynamic)
 .dynamic       0x0000000000007d00      0x1f0 /usr/lib/gcc/x86_64-linux-gnu/11/../../../x86_64-linux-gnu/Scrt1.o
                0x0000000000007d00                _DYNAMIC

.got            0x0000000000007ef0      0x110
 *(.got.plt)
 .got.plt       0x0000000000007ef0       0xe8 /usr/lib/gcc/x86_64-linux-gnu/11/../../../x86_64-linux-gnu/Scrt1.o
                0x0000000000007ef0                _GLOBAL_OFFSET_TABLE_
 *(.igot.plt)
 *(.got)
 .got           0x0000000000007fd8       0x28 /usr/lib/gcc/x86_64-linux-gnu/11/../../../x86_64-linux-gnu/Scrt1.o
 *(.igot)
                0x0000000000008000                . = DATA_SEGMENT_RELRO_END (., 0x0)

.data           0x0000000000008000      0x128
 *(.data .data.* .gnu.linkonce.d.*)
 .data          0x0000000000008000        0x4 /usr/lib/gcc/x86_64-linux-gnu/11/../../../x86_64-linux-gnu/Scrt1.o
                0x0000000000008000                data_start
                0x0000000000008000                __data_start
 .data          0x0000000000008004        0x0 /usr/lib/gcc/x86_64-linux-gnu/11/../../../x86_64-linux-gnu/crti.o
 .data          0x0000000000008004        0x0 /usr/lib/gcc/x86_64-linux-gnu/11/crtbeginS.o
 *fill*         0x0000000000008004        0x4 
 .data.rel.local
                0x0000000000008008        0x8 /usr/lib/gcc/x86_64-linux-gnu/11/crtbeginS.o
                0x0000000000008008                __dso_handle
 .data          0x0000000000008010        0x0 src/main.o
 .data          0x0000000000008010        0x0 src/scanner.o
 .data          0x0000000000008010        0x4 src/token.o
                0x0000000000008010                token_type_map_size
 *fill*         0x0000000000008014        0xc 
 .data.rel.local
                0x0000000000008020       0x38 src/token.o
                0x0000000000008020                token_type_map
 *fill*         0x0000000000008058        0x8 
 .data          0x0000000000008060       0x13 src/lexer.o
                0x0000000000008060                symbols
 *fill*         0x0000000000008073        0xd 
 .data.rel.local
                0x0000000000008080       0xa8 src/lexer.o
                0x0000000000008080                keywords
 .data          0x0000000000008128        0x0 src/parser.o
 .data          0x0000000000008128        0x0 /usr/lib/gcc/x86_64-linux-gnu/11/crtendS.o
 .data          0x0000000000008128        0x0 /usr/lib/gcc/x86_64-linux-gnu/11/../../../x86_64-linux-gnu/crtn.o

.tm_clone_table
                0x0000000000008128        0x0
 .tm_clone_table
                0x0000000000008128        0x0 /usr/lib/gcc/x86_64-linux-gnu/11/crtbeginS.o
 .tm_clone_table
                0x0000000000008128        0x0 /usr/lib/gcc/x86_64-linux-gnu/11/crtendS.o

.data1
 *(.data1)
                0x0000000000008128                _edata = .
                [!provide]                        PROVIDE (edata = .)
                0x0000000000008128                . = .
                0x0000000000008128                __bss_start = .

.bss            0x0000000000008128        0x8
 *(.dynbss)
 .dynbss        0x0000000000008128        0x0 /usr/lib/gcc/x86_64-linux-gnu/11/../../../x86_64-linux-gnu/Scrt1.o
 *(.bss .bss.* .gnu.linkonce.b.*)
 .bss           0x0000000000008128        0x0 /usr/lib/gcc/x86_64-linux-gnu/11/../../../x86_64-linux-gnu/Scrt1.o
 .bss           0x0000000000008128        0x0 /usr/lib/gcc/x86_64-linux-gnu/11/../../../x86_64-linux-gnu/crti.o
 .bss           0x0000000000008128        0x1 /usr/lib/gcc/x86_64-linux-gnu/11/crtbeginS.o
 .bss           0x0000000000008129        0x0 src/main.o
 .bss           0x0000000000008129        0x0 src/scanner.o
 .bss           0x0000000000008129        0x0 src/token.o
 .bss           0x0000000000008129        0x0 src/lexer.o
 .bss           0x0000000000008129        0x0 src/parser.o
 .bss           0x0000000000008129        0x0 /usr/lib/gcc/x86_64-linux-gnu/11/crtendS.o
 .bss           0x0000000000008129        0x0 /usr/lib/gcc/x86_64-linux-gnu/11/../../../x86_64-linux-gnu/crtn.o
 *(COMMON)
                0x0000000000008130                . = ALIGN ((. != 0x0)?0x8:0x1)
 *fill*         0x0000000000008129        0x7 

.lbss
 *(.dynlbss)
 *(.lbss .lbss.* .gnu.linkonce.lb.*)
 *(LARGE_COMMON)
                0x0000000000008130                . = ALIGN (0x8)
                0x0000000000008130                . = SEGMENT_START ("ldata-segment", .)

.lrodata
 *(.lrodata .lrodata.* .gnu.linkonce.lr.*)

.ldata          0x000000000000a130        0x0
 *(.ldata .ldata.* .gnu.linkonce.l.*)
                0x000000000000a130                . = ALIGN ((. != 0x0)?0x8:0x1)
                0x000000000000a130                . = ALIGN (0x8)
                0x0000000000008130                _end = .
                [!provide]                        PROVIDE (end = .)
                0x000000000000a130                . = DATA_SEGMENT_END (.)

.stab
 *(.stab)

.stabstr
 *(.stabstr)

.stab.excl
 *(.stab.excl)

.stab.exclstr
 *(.stab.exclstr)

.stab.index
 *(.stab.index)

.stab.indexstr
 *(.stab.indexstr)

.comment        0x0000000000000000       0x2b
 *(.comment)
 .comment       0x0000000000000000       0x2b /usr/lib/gcc/x86_64-linux-gnu/11/crtbeginS.o
                                         0x2c (size before relaxing)
 .comment       0x000000000000002b       0x2c src/main.o
 .comment       0x000000000000002b       0x2c src/scanner.o
 .comment       0x000000000000002b       0x2c src/token.o
 .comment       0x000000000000002b       0x2c src/lexer.o
 .comment       0x000000000000002b       0x2c src/parser.o
 .comment       0x000000000000002b       0x2c /usr/lib/gcc/x86_64-linux-gnu/11/crtendS.o

.gnu.build.attributes
 *(.gnu.build.attributes .gnu.build.attributes.*)

.debug
 *(.debug)

.line
 *(.line)

.debug_srcinfo
 *(.debug_srcinfo)

.debug_sfnames
 *(.debug_sfnames)

.debug_aranges  0x0000000000000000       0xf0
 *(.debug_aranges)
 .debug_aranges
                0x0000000000000000       0x30 src/main.o
 .debug_aranges
                0x0000000000000030       0x30 src/scanner.o
 .debug_aranges
                0x0000000000000060       0x30 src/token.o
 .debug_aranges
                0x0000000000000090       0x30 src/lexer.o
 .debug_aranges
                0x00000000000000c0       0x30 src/parser.o

.debug_pubnames
 *(.debug_pubnames)

.debug_info     0x0000000000000000     0x28ea
 *(.debug_info .gnu.linkonce.wi.*)
 .debug_info    0x0000000000000000      0x9e6 src/main.o
 .debug_info    0x00000000000009e6      0x64f src/scanner.o
 .debug_info    0x0000000000001035      0x329 src/token.o
 .debug_info    0x000000000000135e      0x7b2 src/lexer.o
 .debug_info    0x0000000000001b10      0xdda src/parser.o

.debug_abbrev   0x0000000000000000      0x949
 *(.debug_abbrev)
 .debug_abbrev  0x0000000000000000      0x18a src/main.o
 .debug_abbrev  0x000000000000018a      0x1c7 src/scanner.o
 .debug_abbrev  0x0000000000000351      0x1a3 src/token.o
 .debug_abbrev  0x00000000000004f4      0x20e src/lexer.o
 .debug_abbrev  0x0000000000000702      0x247 src/parser.o

.debug_line     0x0000000000000000     0x11db
 *(.debug_line .debug_line.* .debug_line_end)
 .debug_line    0x0000000000000000      0x241 src/main.o
 .debug_line    0x0000000000000241      0x17c src/scanner.o
 .debug_line    0x00000000000003bd       0xf7 src/token.o
 .debug_line    0x00000000000004b4      0x310 src/lexer.o
 .debug_line    0x00000000000007c4      0xa17 src/parser.o

.debug_frame
 *(.debug_frame)

.debug_str      0x0000000000000000      0xa37
 *(.debug_str)
 .debug_str     0x0000000000000000      0x564 src/main.o
                                        0x5e1 (size before relaxing)
 .debug_str     0x0000000000000564       0xe6 src/scanner.o
                                        0x407 (size before relaxing)
 .debug_str     0x000000000000064a       0xce src/token.o
                                        0x21d (size before relaxing)
 .debug_str     0x0000000000000718      0x11d src/lexer.o
                                        0x3ca (size before relaxing)
 .debug_str     0x0000000000000835      0x202 src/parser.o
                                        0x630 (size before relaxing)

.debug_loc
 *(.debug_loc)

.debug_macinfo
 *(.debug_macinfo)

.debug_weaknames
 *(.debug_weaknames)

.debug_funcnames
 *(.debug_funcnames)

.debug_typenames
 *(.debug_typenames)

.debug_varnames
 *(.debug_varnames)

.debug_pubtypes
 *(.debug_pubtypes)

.debug_ranges
 *(.debug_ranges)

.debug_addr
 *(.debug_addr)

.debug_line_str
                0x0000000000000000      0x1c9
 *(.debug_line_str)
 .debug_line_str
                0x0000000000000000      0x175 src/main.o
                                        0x1e6 (size before relaxing)
 .debug_line_str
                0x0000000000000175       0x1f src/scanner.o
                                        0x18e (size before relaxing)
 .debug_line_str
                0x0000000000000194       0x14 src/token.o
                                        0x11d (size before relaxing)
 .debug_line_str
                0x00000000000001a8       0x14 src/lexer.o
                                        0x169 (size before relaxing)
 .debug_line_str
                0x00000000000001bc        0xd src/parser.o
                                        0x1a4 (size before relaxing)

.debug_loclists
 *(.debug_loclists)

.debug_macro
 *(.debug_macro)

.debug_names
 *(.debug_names)

.debug_rnglists
 *(.debug_rnglists)

.debug_str_offsets
 *(.debug_str_offsets)

.debug_sup
 *(.debug_sup)

.gnu.attributes
 *(.gnu.attributes)

/DISCARD/
 *(.note.GNU-stack)
 *(.gnu_debuglink)
 *(.gnu.lto_*)
OUTPUT(bin/JackAnalyzer elf64-x86-64)
